; Function Attrs: mustprogress uwtable
define noundef i64 @_ZNK8QuantLib3CDO5errorEv(ptr noundef nonnull align 8 dereferenceable(488) %this) local_unnamed_addr #8 align 2 {
entry:
  %vtable = load ptr, ptr %this, align 8, !tbaa !33
  %vfn = getelementptr inbounds i8, ptr %vtable, i64 24
  %0 = load ptr, ptr %vfn, align 8
  tail call void %0(ptr noundef nonnull align 8 dereferenceable(104) %this)
  %error_ = getelementptr inbounds nuw i8, ptr %this, i64 456
  %1 = load i64, ptr %error_, align 8, !tbaa !190
  ret i64 %1
}